target datalayout = "e-m:e-p270:32:32-p271:32:32-p272:64:64-i64:64-i128:128-f80:128-n8:16:32:64-S128"
target triple = "x86_64-pc-linux-gnu"

%struct.EventFilterPrivate_HandlerNode_ = type { %struct.EventHandlerRestricted_HandlerNode_, %struct.EventFilters_ }
%struct.EventHandlerRestricted_HandlerNode_ = type { %struct.HandlerNode_, %struct.EventHandlerPrivate_Data_ }
%struct.HandlerNode_ = type { i32, i32, i8, i8, i32 }
%struct.EventHandlerPrivate_Data_ = type { ptr, ptr, ptr, ptr }
%struct.EventFilters_ = type { i32, [10000 x %struct.Filter_] }
%struct.Filter_ = type { i8, %union.anon }
%union.anon = type { %struct.LocationFilter }
%struct.LocationFilter = type { ptr, ptr, i64 }
%struct.FieldFilter = type { ptr, ptr }

; Function Attrs: nounwind uwtable
define internal zeroext i8 @matchWatchpoint(ptr noundef %0, ptr noundef %1, ptr noundef %2) #0 {
  %4 = alloca i8, align 1
  %5 = alloca ptr, align 8
  %6 = alloca ptr, align 8
  %7 = alloca ptr, align 8
  %8 = alloca ptr, align 8
  %9 = alloca ptr, align 8
  %10 = alloca i32, align 4
  %11 = alloca ptr, align 8
  store ptr %0, ptr %5, align 8
  store ptr %1, ptr %6, align 8
  store ptr %2, ptr %7, align 8
  %12 = load ptr, ptr %7, align 8
  store ptr %12, ptr %8, align 8
  %13 = load ptr, ptr %6, align 8
  %14 = getelementptr inbounds %struct.EventFilterPrivate_HandlerNode_, ptr %13, i32 0, i32 1
  %15 = getelementptr inbounds %struct.EventFilters_, ptr %14, i32 0, i32 1
  %16 = getelementptr inbounds [10000 x %struct.Filter_], ptr %15, i64 0, i64 0
  store ptr %16, ptr %9, align 8
  store i32 0, ptr %10, align 4
  br label %17

17:                                               ; preds = %53, %3
  %18 = load i32, ptr %10, align 4
  %19 = load ptr, ptr %6, align 8
  %20 = getelementptr inbounds %struct.EventFilterPrivate_HandlerNode_, ptr %19, i32 0, i32 1
  %21 = getelementptr inbounds %struct.EventFilters_, ptr %20, i32 0, i32 0
  %22 = load i32, ptr %21, align 8
  %23 = icmp slt i32 %18, %22
  br i1 %23, label %24, label %58

24:                                               ; preds = %17
  %25 = load ptr, ptr %9, align 8
  %26 = getelementptr inbounds %struct.Filter_, ptr %25, i32 0, i32 0
  %27 = load i8, ptr %26, align 8
  %28 = sext i8 %27 to i32
  switch i32 %28, label %52 [
    i32 9, label %29
  ]

29:                                               ; preds = %24
  %30 = load ptr, ptr %9, align 8
  %31 = getelementptr inbounds %struct.Filter_, ptr %30, i32 0, i32 1
  store ptr %31, ptr %11, align 8
  %32 = load ptr, ptr %11, align 8
  %33 = getelementptr inbounds %struct.FieldFilter, ptr %32, i32 0, i32 1
  %34 = load ptr, ptr %33, align 8
  %35 = load ptr, ptr %8, align 8
  %36 = getelementptr inbounds %struct.FieldFilter, ptr %35, i32 0, i32 1
  %37 = load ptr, ptr %36, align 8
  %38 = icmp eq ptr %34, %37
  br i1 %38, label %39, label %51

39:                                               ; preds = %29
  %40 = load ptr, ptr %5, align 8
  %41 = load ptr, ptr %11, align 8
  %42 = getelementptr inbounds %struct.FieldFilter, ptr %41, i32 0, i32 0
  %43 = load ptr, ptr %42, align 8
  %44 = load ptr, ptr %8, align 8
  %45 = getelementptr inbounds %struct.FieldFilter, ptr %44, i32 0, i32 0
  %46 = load ptr, ptr %45, align 8
  %47 = call zeroext i8 @isSameObject(ptr noundef %40, ptr noundef %43, ptr noundef %46)
  %48 = zext i8 %47 to i32
  %49 = icmp ne i32 %48, 0
  br i1 %49, label %50, label %51

50:                                               ; preds = %39
  store i8 1, ptr %4, align 1
  br label %59

51:                                               ; preds = %39, %29
  br label %52

52:                                               ; preds = %51, %24
  br label %53

53:                                               ; preds = %52
  %54 = load i32, ptr %10, align 4
  %55 = add nsw i32 %54, 1
  store i32 %55, ptr %10, align 4
  %56 = load ptr, ptr %9, align 8
  %57 = getelementptr inbounds %struct.Filter_, ptr %56, i32 1
  store ptr %57, ptr %9, align 8
  br label %17, !llvm.loop !16

58:                                               ; preds = %17
  store i8 0, ptr %4, align 1
  br label %59

59:                                               ; preds = %58, %50
  %60 = load i8, ptr %4, align 1
  ret i8 %60
}