; Function Attrs: nounwind uwtable
define internal zeroext range(i8 0, 2) i8 @matchWatchpoint(ptr noundef %0, ptr nocapture noundef readonly %1, ptr nocapture noundef readonly %2) #0 {
  %4 = getelementptr inbounds i8, ptr %1, i64 48
  %5 = load i32, ptr %4, align 8
  %6 = icmp sgt i32 %5, 0
  br i1 %6, label %.lr.ph, label %._crit_edge

.lr.ph:                                           ; preds = %3
  %7 = getelementptr inbounds i8, ptr %1, i64 56
  %8 = getelementptr inbounds i8, ptr %2, i64 8
  br label %9

9:                                                ; preds = %.lr.ph, %22
  %10 = phi i32 [ %5, %.lr.ph ], [ %23, %22 ]
  %.01316 = phi i32 [ 0, %.lr.ph ], [ %24, %22 ]
  %.01415 = phi ptr [ %7, %.lr.ph ], [ %25, %22 ]
  %11 = load i8, ptr %.01415, align 8
  %cond = icmp eq i8 %11, 9
  br i1 %cond, label %12, label %22

12:                                               ; preds = %9
  %13 = getelementptr inbounds i8, ptr %.01415, i64 16
  %14 = load ptr, ptr %13, align 8
  %15 = load ptr, ptr %8, align 8
  %16 = icmp eq ptr %14, %15
  br i1 %16, label %17, label %22

17:                                               ; preds = %12
  %18 = getelementptr inbounds i8, ptr %.01415, i64 8
  %19 = load ptr, ptr %18, align 8
  %20 = load ptr, ptr %2, align 8
  %21 = tail call zeroext i8 @isSameObject(ptr noundef %0, ptr noundef %19, ptr noundef %20) #6
  %.not = icmp eq i8 %21, 0
  br i1 %.not, label %._crit_edge19, label %._crit_edge

._crit_edge19:                                    ; preds = %17
  %.pre = load i32, ptr %4, align 8
  br label %22

22:                                               ; preds = %._crit_edge19, %9, %12
  %23 = phi i32 [ %.pre, %._crit_edge19 ], [ %10, %9 ], [ %10, %12 ]
  %24 = add nuw nsw i32 %.01316, 1
  %25 = getelementptr inbounds i8, ptr %.01415, i64 32
  %26 = icmp slt i32 %24, %23
  br i1 %26, label %9, label %._crit_edge, !llvm.loop !16

._crit_edge:                                      ; preds = %17, %22, %3
  %.0 = phi i8 [ 0, %3 ], [ 0, %22 ], [ 1, %17 ]
  ret i8 %.0
}